target datalayout = "e-m:e-p270:32:32-p271:32:32-p272:64:64-i64:64-i128:128-f80:128-n8:16:32:64-S128"
target triple = "x86_64-pc-linux-gnu"

%struct.SwsInternal = type { %struct.SwsContext, ptr, ptr, ptr, ptr, i32, [2 x ptr], i32, i32, ptr, i32, i32, i32, i32, i32, i32, i32, i32, i32, i32, i32, i32, i32, i32, i32, i32, i32, i32, ptr, ptr, %struct.RangeList, [3 x ptr], [2 x [4 x i32]], [2 x [4 x ptr]], i32, double, i32, ptr, ptr, i32, [2 x i32], i32, ptr, ptr, [256 x i32], [256 x i32], [256 x float], i32, i32, ptr, i32, ptr, ptr, ptr, ptr, ptr, ptr, ptr, ptr, i32, i32, i32, i32, i32, i32, ptr, ptr, i32, i32, i32, ptr, [8 x i8], [1280 x i32], [1280 x ptr], [1280 x ptr], [1280 x ptr], [176 x i32], [4 x ptr], i32, i32, i32, [4 x i32], [4 x i32], i32, i32, i32, i32, i32, i32, i32, i32, i32, i32, i64, i64, i64, i64, i64, i64, i64, i64, i64, i64, i64, [1024 x i32], [1024 x i32], i32, i64, i64, i64, i64, i64, [1024 x i32], i64, i64, [8 x i16], [8 x i32], ptr, ptr, i32, ptr, ptr, ptr, ptr, [3 x [4 x i16]], [3 x [4 x i16]], ptr, ptr, ptr, ptr, ptr, ptr, ptr, ptr, ptr, ptr, ptr, ptr, ptr, ptr, ptr, ptr, ptr, ptr, ptr, ptr, i32, i32, i64, i64, i32, ptr, i32, ptr, i32, i32, i32, i32, i32, ptr }
%struct.SwsContext = type { ptr, ptr, i32, [2 x double], i32, i32, i32, i32, i32, i32, i32, i32, i32, i32, i32, i32, i32, i32, i32, i32, i32 }
%struct.RangeList = type { ptr, i32, i32 }
%struct.AVFrame = type { [8 x ptr], [8 x i32], ptr, i32, i32, i32, i32, i32, %struct.AVRational, i64, i64, %struct.AVRational, i32, ptr, i32, i32, [8 x ptr], ptr, i32, ptr, i32, i32, i32, i32, i32, i32, i32, i64, ptr, i32, ptr, ptr, i64, i64, i64, i64, ptr, %struct.AVChannelLayout, i64 }
%struct.AVRational = type { i32, i32 }
%struct.AVChannelLayout = type { i32, i32, %union.anon, ptr }
%union.anon = type { i64 }

; Function Attrs: inlinehint nounwind uwtable
define internal ptr @sws_internal(ptr noundef %0) #5 {
  %2 = alloca ptr, align 8
  store ptr %0, ptr %2, align 8, !tbaa !90
  %3 = load ptr, ptr %2, align 8, !tbaa !90
  ret ptr %3
}

; Function Attrs: nounwind uwtable
define i32 @sws_frame_start(ptr noundef %0, ptr noundef %1, ptr noundef %2) #0 {
  %4 = alloca i32, align 4
  %5 = alloca ptr, align 8
  %6 = alloca ptr, align 8
  %7 = alloca ptr, align 8
  %8 = alloca ptr, align 8
  %9 = alloca i32, align 4
  %10 = alloca i32, align 4
  %11 = alloca i32, align 4
  store ptr %0, ptr %5, align 8, !tbaa !90
  store ptr %1, ptr %6, align 8, !tbaa !132
  store ptr %2, ptr %7, align 8, !tbaa !132
  call void @llvm.lifetime.start.p0(i64 8, ptr %8) #11
  %12 = load ptr, ptr %5, align 8, !tbaa !90
  %13 = call ptr @sws_internal(ptr noundef %12)
  store ptr %13, ptr %8, align 8, !tbaa !4
  call void @llvm.lifetime.start.p0(i64 4, ptr %9) #11
  call void @llvm.lifetime.start.p0(i64 4, ptr %10) #11
  store i32 0, ptr %10, align 4, !tbaa !14
  %14 = load ptr, ptr %8, align 8, !tbaa !4
  %15 = getelementptr inbounds nuw %struct.SwsInternal, ptr %14, i32 0, i32 28
  %16 = load ptr, ptr %15, align 16, !tbaa !129
  %17 = load ptr, ptr %7, align 8, !tbaa !132
  %18 = call i32 @av_frame_ref(ptr noundef %16, ptr noundef %17)
  store i32 %18, ptr %9, align 4, !tbaa !14
  %19 = load i32, ptr %9, align 4, !tbaa !14
  %20 = icmp slt i32 %19, 0
  br i1 %20, label %21, label %23

21:                                               ; preds = %3
  %22 = load i32, ptr %9, align 4, !tbaa !14
  store i32 %22, ptr %4, align 4
  store i32 1, ptr %11, align 4
  br label %68

23:                                               ; preds = %3
  %24 = load ptr, ptr %6, align 8, !tbaa !132
  %25 = getelementptr inbounds nuw %struct.AVFrame, ptr %24, i32 0, i32 16
  %26 = getelementptr inbounds [8 x ptr], ptr %25, i64 0, i64 0
  %27 = load ptr, ptr %26, align 8, !tbaa !133
  %28 = icmp ne ptr %27, null
  br i1 %28, label %52, label %29

29:                                               ; preds = %23
  %30 = load ptr, ptr %5, align 8, !tbaa !90
  %31 = getelementptr inbounds nuw %struct.SwsContext, ptr %30, i32 0, i32 10
  %32 = load i32, ptr %31, align 8, !tbaa !135
  %33 = load ptr, ptr %6, align 8, !tbaa !132
  %34 = getelementptr inbounds nuw %struct.AVFrame, ptr %33, i32 0, i32 3
  store i32 %32, ptr %34, align 8, !tbaa !136
  %35 = load ptr, ptr %5, align 8, !tbaa !90
  %36 = getelementptr inbounds nuw %struct.SwsContext, ptr %35, i32 0, i32 11
  %37 = load i32, ptr %36, align 4, !tbaa !143
  %38 = load ptr, ptr %6, align 8, !tbaa !132
  %39 = getelementptr inbounds nuw %struct.AVFrame, ptr %38, i32 0, i32 4
  store i32 %37, ptr %39, align 4, !tbaa !144
  %40 = load ptr, ptr %5, align 8, !tbaa !90
  %41 = getelementptr inbounds nuw %struct.SwsContext, ptr %40, i32 0, i32 13
  %42 = load i32, ptr %41, align 4, !tbaa !145
  %43 = load ptr, ptr %6, align 8, !tbaa !132
  %44 = getelementptr inbounds nuw %struct.AVFrame, ptr %43, i32 0, i32 6
  store i32 %42, ptr %44, align 4, !tbaa !146
  %45 = load ptr, ptr %6, align 8, !tbaa !132
  %46 = call i32 @av_frame_get_buffer(ptr noundef %45, i32 noundef 0)
  store i32 %46, ptr %9, align 4, !tbaa !14
  %47 = load i32, ptr %9, align 4, !tbaa !14
  %48 = icmp slt i32 %47, 0
  br i1 %48, label %49, label %51

49:                                               ; preds = %29
  %50 = load i32, ptr %9, align 4, !tbaa !14
  store i32 %50, ptr %4, align 4
  store i32 1, ptr %11, align 4
  br label %68

51:                                               ; preds = %29
  store i32 1, ptr %10, align 4, !tbaa !14
  br label %52

52:                                               ; preds = %51, %23
  %53 = load ptr, ptr %8, align 8, !tbaa !4
  %54 = getelementptr inbounds nuw %struct.SwsInternal, ptr %53, i32 0, i32 29
  %55 = load ptr, ptr %54, align 8, !tbaa !130
  %56 = load ptr, ptr %6, align 8, !tbaa !132
  %57 = call i32 @av_frame_ref(ptr noundef %55, ptr noundef %56)
  store i32 %57, ptr %9, align 4, !tbaa !14
  %58 = load i32, ptr %9, align 4, !tbaa !14
  %59 = icmp slt i32 %58, 0
  br i1 %59, label %60, label %67

60:                                               ; preds = %52
  %61 = load i32, ptr %10, align 4, !tbaa !14
  %62 = icmp ne i32 %61, 0
  br i1 %62, label %63, label %65

63:                                               ; preds = %60
  %64 = load ptr, ptr %6, align 8, !tbaa !132
  call void @av_frame_unref(ptr noundef %64)
  br label %65

65:                                               ; preds = %63, %60
  %66 = load i32, ptr %9, align 4, !tbaa !14
  store i32 %66, ptr %4, align 4
  store i32 1, ptr %11, align 4
  br label %68

67:                                               ; preds = %52
  store i32 0, ptr %4, align 4
  store i32 1, ptr %11, align 4
  br label %68

68:                                               ; preds = %67, %65, %49, %21
  call void @llvm.lifetime.end.p0(i64 4, ptr %10) #11
  call void @llvm.lifetime.end.p0(i64 4, ptr %9) #11
  call void @llvm.lifetime.end.p0(i64 8, ptr %8) #11
  %69 = load i32, ptr %4, align 4
  ret i32 %69
}