; Function Attrs: nounwind uwtable
define range(i32 -2147483648, 1) i32 @sws_frame_start(ptr noundef readonly captures(none) %0, ptr noundef %1, ptr noundef %2) local_unnamed_addr #0 {
  %4 = getelementptr inbounds nuw i8, ptr %0, i64 256
  %5 = load ptr, ptr %4, align 16, !tbaa !119
  %6 = tail call i32 @av_frame_ref(ptr noundef %5, ptr noundef %2) #11
  %7 = icmp slt i32 %6, 0
  br i1 %7, label %29, label %8

8:                                                ; preds = %3
  %9 = getelementptr inbounds nuw i8, ptr %1, i64 184
  %10 = load ptr, ptr %9, align 8, !tbaa !122
  %.not.not = icmp ne ptr %10, null
  br i1 %.not.not, label %23, label %11

11:                                               ; preds = %8
  %12 = getelementptr inbounds nuw i8, ptr %0, i64 64
  %13 = load i32, ptr %12, align 8, !tbaa !124
  %14 = getelementptr inbounds nuw i8, ptr %1, i64 104
  store i32 %13, ptr %14, align 8, !tbaa !125
  %15 = getelementptr inbounds nuw i8, ptr %0, i64 68
  %16 = load i32, ptr %15, align 4, !tbaa !132
  %17 = getelementptr inbounds nuw i8, ptr %1, i64 108
  store i32 %16, ptr %17, align 4, !tbaa !133
  %18 = getelementptr inbounds nuw i8, ptr %0, i64 76
  %19 = load i32, ptr %18, align 4, !tbaa !134
  %20 = getelementptr inbounds nuw i8, ptr %1, i64 116
  store i32 %19, ptr %20, align 4, !tbaa !135
  %21 = tail call i32 @av_frame_get_buffer(ptr noundef nonnull %1, i32 noundef 0) #11
  %22 = icmp slt i32 %21, 0
  br i1 %22, label %29, label %23

23:                                               ; preds = %11, %8
  %24 = getelementptr inbounds nuw i8, ptr %0, i64 264
  %25 = load ptr, ptr %24, align 8, !tbaa !120
  %26 = tail call i32 @av_frame_ref(ptr noundef %25, ptr noundef nonnull %1) #11
  %27 = icmp sgt i32 %26, -1
  %brmerge = or i1 %.not.not, %27
  %.mux = select i1 %27, i32 0, i32 %26
  br i1 %brmerge, label %29, label %28

28:                                               ; preds = %23
  tail call void @av_frame_unref(ptr noundef nonnull %1) #11
  br label %29

29:                                               ; preds = %23, %28, %11, %3
  %.021 = phi i32 [ %6, %3 ], [ %21, %11 ], [ %26, %28 ], [ %.mux, %23 ]
  ret i32 %.021
}